target datalayout = "e-m:e-p270:32:32-p271:32:32-p272:64:64-i64:64-i128:128-f80:128-n8:16:32:64-S128"
target triple = "x86_64-pc-linux-gnu"

%"class.zmq::msg_t" = type { %union.anon }
%union.anon = type { %struct.anon }
%struct.anon = type { ptr, [34 x i8], i8, i8, i32, %"union.zmq::msg_t::group_t" }
%"union.zmq::msg_t::group_t" = type { %struct.anon.1 }
%struct.anon.1 = type { i8, ptr }
%struct.anon.3 = type { ptr, ptr, [26 x i8], i8, i8, i32, %"union.zmq::msg_t::group_t" }
%"struct.zmq::msg_t::content_t" = type { ptr, i64, ptr, ptr, %"class.zmq::atomic_counter_t" }
%"class.zmq::atomic_counter_t" = type { %"struct.std::atomic", [4 x i8] }
%"struct.std::atomic" = type { %"struct.std::__atomic_base" }
%"struct.std::__atomic_base" = type { i32 }
%struct.anon.4 = type { ptr, ptr, [26 x i8], i8, i8, i32, %"union.zmq::msg_t::group_t" }

@stderr = external global ptr, align 8
@.str = private unnamed_addr constant [30 x i8] c"Assertion failed: %s (%s:%d)\0A\00", align 1
@.str.2 = private unnamed_addr constant [103 x i8] c"generated/home/dtcxzyw/WorkSpace/Projects/compilers/llvm-opt-benchmark/bench/libzmq/libzmq/src/msg.cpp\00", align 1
@.str.7 = private unnamed_addr constant [6 x i8] c"false\00", align 1
@.str.9 = private unnamed_addr constant [11 x i8] c"refs_ >= 0\00", align 1
@.str.10 = private unnamed_addr constant [25 x i8] c"_u.base.metadata == NULL\00", align 1

; Function Attrs: noinline noreturn nounwind uwtable
define linkonce_odr hidden void @__clang_call_terminate(ptr noundef %0) #13 comdat {
  %2 = call ptr @__cxa_begin_catch(ptr %0) #14
  call void @_ZSt9terminatev() #19
  unreachable
}

; Function Attrs: mustprogress nounwind uwtable
define linkonce_odr noundef i32 @_ZStanSt12memory_orderSt23__memory_order_modifier(i32 noundef %0, i32 noundef %1) #0 comdat {
  %3 = alloca i32, align 4
  %4 = alloca i32, align 4
  store i32 %0, ptr %3, align 4, !tbaa !38
  store i32 %1, ptr %4, align 4, !tbaa !74
  %5 = load i32, ptr %3, align 4, !tbaa !38
  %6 = load i32, ptr %4, align 4, !tbaa !74
  %7 = and i32 %5, %6
  ret i32 %7
}

; Function Attrs: alwaysinline mustprogress nounwind uwtable
define linkonce_odr void @_ZNSt13__atomic_baseIjE5storeEjSt12memory_order(ptr noundef nonnull align 4 dereferenceable(4) %0, i32 noundef %1, i32 noundef %2) #12 comdat align 2 personality ptr @__gxx_personality_v0 {
  %4 = alloca ptr, align 8
  %5 = alloca i32, align 4
  %6 = alloca i32, align 4
  %7 = alloca i32, align 4
  %8 = alloca i32, align 4
  store ptr %0, ptr %4, align 8, !tbaa !35
  store i32 %1, ptr %5, align 4, !tbaa !14
  store i32 %2, ptr %6, align 4, !tbaa !38
  %9 = load ptr, ptr %4, align 8
  call void @llvm.lifetime.start.p0(i64 4, ptr %7) #14
  %10 = load i32, ptr %6, align 4, !tbaa !38
  %11 = invoke noundef i32 @_ZStanSt12memory_orderSt23__memory_order_modifier(i32 noundef %10, i32 noundef 65535)
          to label %12 unwind label %32

12:                                               ; preds = %3
  store i32 %11, ptr %7, align 4, !tbaa !38
  br label %13

13:                                               ; preds = %12
  br label %14

14:                                               ; preds = %13
  br label %15

15:                                               ; preds = %14
  br label %16

16:                                               ; preds = %15
  br label %17

17:                                               ; preds = %16
  br label %18

18:                                               ; preds = %17
  br label %19

19:                                               ; preds = %18
  br label %20

20:                                               ; preds = %19
  br label %21

21:                                               ; preds = %20
  %22 = getelementptr inbounds nuw %"struct.std::__atomic_base", ptr %9, i32 0, i32 0
  %23 = load i32, ptr %6, align 4, !tbaa !38
  %24 = load i32, ptr %5, align 4, !tbaa !14
  store i32 %24, ptr %8, align 4, !tbaa !14
  switch i32 %23, label %25 [
    i32 3, label %27
    i32 5, label %29
  ]

25:                                               ; preds = %21
  %26 = load i32, ptr %8, align 4
  store atomic i32 %26, ptr %22 monotonic, align 4
  br label %31

27:                                               ; preds = %21
  %28 = load i32, ptr %8, align 4
  store atomic i32 %28, ptr %22 release, align 4
  br label %31

29:                                               ; preds = %21
  %30 = load i32, ptr %8, align 4
  store atomic i32 %30, ptr %22 seq_cst, align 4
  br label %31

31:                                               ; preds = %29, %27, %25
  call void @llvm.lifetime.end.p0(i64 4, ptr %7) #14
  ret void

32:                                               ; preds = %3
  %33 = landingpad { ptr, i32 }
          catch ptr null
  %34 = extractvalue { ptr, i32 } %33, 0
  call void @__clang_call_terminate(ptr %34) #19
  unreachable
}

; Function Attrs: mustprogress nounwind uwtable
define linkonce_odr noundef i32 @_ZNSt13__atomic_baseIjEaSEj(ptr noundef nonnull align 4 dereferenceable(4) %0, i32 noundef %1) #0 comdat align 2 {
  %3 = alloca ptr, align 8
  %4 = alloca i32, align 4
  store ptr %0, ptr %3, align 8, !tbaa !35
  store i32 %1, ptr %4, align 4, !tbaa !14
  %5 = load ptr, ptr %3, align 8
  %6 = load i32, ptr %4, align 4, !tbaa !14
  call void @_ZNSt13__atomic_baseIjE5storeEjSt12memory_order(ptr noundef nonnull align 4 dereferenceable(4) %5, i32 noundef %6, i32 noundef 5) #14
  %7 = load i32, ptr %4, align 4, !tbaa !14
  ret i32 %7
}

; Function Attrs: alwaysinline mustprogress nounwind uwtable
define linkonce_odr noundef i32 @_ZNSt13__atomic_baseIjE9fetch_addEjSt12memory_order(ptr noundef nonnull align 4 dereferenceable(4) %0, i32 noundef %1, i32 noundef %2) #12 comdat align 2 {
  %4 = alloca ptr, align 8
  %5 = alloca i32, align 4
  %6 = alloca i32, align 4
  %7 = alloca i32, align 4
  %8 = alloca i32, align 4
  store ptr %0, ptr %4, align 8, !tbaa !35
  store i32 %1, ptr %5, align 4, !tbaa !14
  store i32 %2, ptr %6, align 4, !tbaa !38
  %9 = load ptr, ptr %4, align 8
  %10 = getelementptr inbounds nuw %"struct.std::__atomic_base", ptr %9, i32 0, i32 0
  %11 = load i32, ptr %6, align 4, !tbaa !38
  %12 = load i32, ptr %5, align 4, !tbaa !14
  store i32 %12, ptr %7, align 4, !tbaa !14
  switch i32 %11, label %13 [
    i32 1, label %16
    i32 2, label %16
    i32 3, label %19
    i32 4, label %22
    i32 5, label %25
  ]

13:                                               ; preds = %3
  %14 = load i32, ptr %7, align 4
  %15 = atomicrmw add ptr %10, i32 %14 monotonic, align 4
  store i32 %15, ptr %8, align 4
  br label %28

16:                                               ; preds = %3, %3
  %17 = load i32, ptr %7, align 4
  %18 = atomicrmw add ptr %10, i32 %17 acquire, align 4
  store i32 %18, ptr %8, align 4
  br label %28

19:                                               ; preds = %3
  %20 = load i32, ptr %7, align 4
  %21 = atomicrmw add ptr %10, i32 %20 release, align 4
  store i32 %21, ptr %8, align 4
  br label %28

22:                                               ; preds = %3
  %23 = load i32, ptr %7, align 4
  %24 = atomicrmw add ptr %10, i32 %23 acq_rel, align 4
  store i32 %24, ptr %8, align 4
  br label %28

25:                                               ; preds = %3
  %26 = load i32, ptr %7, align 4
  %27 = atomicrmw add ptr %10, i32 %26 seq_cst, align 4
  store i32 %27, ptr %8, align 4
  br label %28

28:                                               ; preds = %25, %22, %19, %16, %13
  %29 = load i32, ptr %8, align 4, !tbaa !14
  ret i32 %29
}

; Function Attrs: mustprogress nounwind uwtable
define linkonce_odr void @_ZN3zmq16atomic_counter_t3setEj(ptr noundef nonnull align 8 dereferenceable(4) %0, i32 noundef %1) #0 comdat align 2 {
  %3 = alloca ptr, align 8
  %4 = alloca i32, align 4
  store ptr %0, ptr %3, align 8, !tbaa !26
  store i32 %1, ptr %4, align 4, !tbaa !14
  %5 = load ptr, ptr %3, align 8
  %6 = load i32, ptr %4, align 4, !tbaa !14
  %7 = getelementptr inbounds nuw %"class.zmq::atomic_counter_t", ptr %5, i32 0, i32 0
  %8 = call noundef i32 @_ZNSt13__atomic_baseIjEaSEj(ptr noundef nonnull align 4 dereferenceable(4) %7, i32 noundef %6) #14
  ret void
}

; Function Attrs: mustprogress nounwind uwtable
define linkonce_odr noundef i32 @_ZN3zmq16atomic_counter_t3addEj(ptr noundef nonnull align 8 dereferenceable(4) %0, i32 noundef %1) #0 comdat align 2 {
  %3 = alloca ptr, align 8
  %4 = alloca i32, align 4
  %5 = alloca i32, align 4
  store ptr %0, ptr %3, align 8, !tbaa !26
  store i32 %1, ptr %4, align 4, !tbaa !14
  %6 = load ptr, ptr %3, align 8
  call void @llvm.lifetime.start.p0(i64 4, ptr %5) #14
  %7 = getelementptr inbounds nuw %"class.zmq::atomic_counter_t", ptr %6, i32 0, i32 0
  %8 = load i32, ptr %4, align 4, !tbaa !14
  %9 = call noundef i32 @_ZNSt13__atomic_baseIjE9fetch_addEjSt12memory_order(ptr noundef nonnull align 4 dereferenceable(4) %7, i32 noundef %8, i32 noundef 4) #14
  store i32 %9, ptr %5, align 4, !tbaa !14
  %10 = load i32, ptr %5, align 4, !tbaa !14
  call void @llvm.lifetime.end.p0(i64 4, ptr %5) #14
  ret i32 %10
}

; Function Attrs: mustprogress uwtable
define noundef ptr @_ZN3zmq5msg_t6refcntEv(ptr noundef nonnull align 8 dereferenceable(64) %0) #1 align 2 {
  %2 = alloca ptr, align 8
  %3 = alloca ptr, align 8
  store ptr %0, ptr %3, align 8, !tbaa !3
  %4 = load ptr, ptr %3, align 8
  %5 = getelementptr inbounds nuw %"class.zmq::msg_t", ptr %4, i32 0, i32 0
  %6 = getelementptr inbounds nuw %struct.anon, ptr %5, i32 0, i32 2
  %7 = load i8, ptr %6, align 2, !tbaa !8
  %8 = zext i8 %7 to i32
  switch i32 %8, label %19 [
    i32 102, label %9
    i32 105, label %14
  ]

9:                                                ; preds = %1
  %10 = getelementptr inbounds nuw %"class.zmq::msg_t", ptr %4, i32 0, i32 0
  %11 = getelementptr inbounds nuw %struct.anon.3, ptr %10, i32 0, i32 1
  %12 = load ptr, ptr %11, align 8, !tbaa !8
  %13 = getelementptr inbounds nuw %"struct.zmq::msg_t::content_t", ptr %12, i32 0, i32 4
  store ptr %13, ptr %2, align 8
  br label %26

14:                                               ; preds = %1
  %15 = getelementptr inbounds nuw %"class.zmq::msg_t", ptr %4, i32 0, i32 0
  %16 = getelementptr inbounds nuw %struct.anon.4, ptr %15, i32 0, i32 1
  %17 = load ptr, ptr %16, align 8, !tbaa !8
  %18 = getelementptr inbounds nuw %"struct.zmq::msg_t::content_t", ptr %17, i32 0, i32 4
  store ptr %18, ptr %2, align 8
  br label %26

19:                                               ; preds = %1
  br label %20

20:                                               ; preds = %19
  %21 = load ptr, ptr @stderr, align 8, !tbaa !24
  %22 = call i32 (ptr, ptr, ...) @fprintf(ptr noundef %21, ptr noundef @.str, ptr noundef @.str.7, ptr noundef @.str.2, i32 noundef 695) #14
  %23 = load ptr, ptr @stderr, align 8, !tbaa !24
  %24 = call i32 @fflush(ptr noundef %23)
  call void @_ZN3zmq9zmq_abortEPKc(ptr noundef @.str.7)
  br label %25

25:                                               ; preds = %20
  store ptr null, ptr %2, align 8
  br label %26

26:                                               ; preds = %25, %14, %9
  %27 = load ptr, ptr %2, align 8
  ret ptr %27
}

; Function Attrs: mustprogress nounwind uwtable
define noundef zeroext i1 @_ZNK3zmq5msg_t8is_zcmsgEv(ptr noundef nonnull align 8 dereferenceable(64) %0) #0 align 2 {
  %2 = alloca ptr, align 8
  store ptr %0, ptr %2, align 8, !tbaa !3
  %3 = load ptr, ptr %2, align 8
  %4 = getelementptr inbounds nuw %"class.zmq::msg_t", ptr %3, i32 0, i32 0
  %5 = getelementptr inbounds nuw %struct.anon, ptr %4, i32 0, i32 2
  %6 = load i8, ptr %5, align 2, !tbaa !8
  %7 = zext i8 %6 to i32
  %8 = icmp eq i32 %7, 105
  ret i1 %8
}

; Function Attrs: mustprogress uwtable
define void @_ZN3zmq5msg_t8add_refsEi(ptr noundef nonnull align 8 dereferenceable(64) %0, i32 noundef %1) #1 align 2 {
  %3 = alloca ptr, align 8
  %4 = alloca i32, align 4
  store ptr %0, ptr %3, align 8, !tbaa !3
  store i32 %1, ptr %4, align 4, !tbaa !14
  %5 = load ptr, ptr %3, align 8
  br label %6

6:                                                ; preds = %2
  %7 = load i32, ptr %4, align 4, !tbaa !14
  %8 = icmp sge i32 %7, 0
  %9 = xor i1 %8, true
  %10 = zext i1 %9 to i64
  %11 = call i64 @llvm.expect.i64(i64 %10, i64 0)
  %12 = icmp ne i64 %11, 0
  br i1 %12, label %13, label %18

13:                                               ; preds = %6
  %14 = load ptr, ptr @stderr, align 8, !tbaa !24
  %15 = call i32 (ptr, ptr, ...) @fprintf(ptr noundef %14, ptr noundef @.str, ptr noundef @.str.9, ptr noundef @.str.2, i32 noundef 563) #14
  %16 = load ptr, ptr @stderr, align 8, !tbaa !24
  %17 = call i32 @fflush(ptr noundef %16)
  call void @_ZN3zmq9zmq_abortEPKc(ptr noundef @.str.9)
  br label %18

18:                                               ; preds = %13, %6
  br label %19

19:                                               ; preds = %18
  br label %20

20:                                               ; preds = %19
  %21 = getelementptr inbounds nuw %"class.zmq::msg_t", ptr %5, i32 0, i32 0
  %22 = getelementptr inbounds nuw %struct.anon, ptr %21, i32 0, i32 0
  %23 = load ptr, ptr %22, align 8, !tbaa !8
  %24 = icmp eq ptr %23, null
  %25 = xor i1 %24, true
  %26 = zext i1 %25 to i64
  %27 = call i64 @llvm.expect.i64(i64 %26, i64 0)
  %28 = icmp ne i64 %27, 0
  br i1 %28, label %29, label %34

29:                                               ; preds = %20
  %30 = load ptr, ptr @stderr, align 8, !tbaa !24
  %31 = call i32 (ptr, ptr, ...) @fprintf(ptr noundef %30, ptr noundef @.str, ptr noundef @.str.10, ptr noundef @.str.2, i32 noundef 566) #14
  %32 = load ptr, ptr @stderr, align 8, !tbaa !24
  %33 = call i32 @fflush(ptr noundef %32)
  call void @_ZN3zmq9zmq_abortEPKc(ptr noundef @.str.10)
  br label %34

34:                                               ; preds = %29, %20
  br label %35

35:                                               ; preds = %34
  %36 = load i32, ptr %4, align 4, !tbaa !14
  %37 = icmp ne i32 %36, 0
  br i1 %37, label %39, label %38

38:                                               ; preds = %35
  br label %69

39:                                               ; preds = %35
  %40 = getelementptr inbounds nuw %"class.zmq::msg_t", ptr %5, i32 0, i32 0
  %41 = getelementptr inbounds nuw %struct.anon, ptr %40, i32 0, i32 2
  %42 = load i8, ptr %41, align 2, !tbaa !8
  %43 = zext i8 %42 to i32
  %44 = icmp eq i32 %43, 102
  br i1 %44, label %47, label %45

45:                                               ; preds = %39
  %46 = call noundef zeroext i1 @_ZNK3zmq5msg_t8is_zcmsgEv(ptr noundef nonnull align 8 dereferenceable(64) %5)
  br i1 %46, label %47, label %69

47:                                               ; preds = %45, %39
  %48 = getelementptr inbounds nuw %"class.zmq::msg_t", ptr %5, i32 0, i32 0
  %49 = getelementptr inbounds nuw %struct.anon, ptr %48, i32 0, i32 3
  %50 = load i8, ptr %49, align 1, !tbaa !8
  %51 = zext i8 %50 to i32
  %52 = and i32 %51, 128
  %53 = icmp ne i32 %52, 0
  br i1 %53, label %54, label %58

54:                                               ; preds = %47
  %55 = call noundef ptr @_ZN3zmq5msg_t6refcntEv(ptr noundef nonnull align 8 dereferenceable(64) %5)
  %56 = load i32, ptr %4, align 4, !tbaa !14
  %57 = call noundef i32 @_ZN3zmq16atomic_counter_t3addEj(ptr noundef nonnull align 8 dereferenceable(4) %55, i32 noundef %56) #14
  br label %68

58:                                               ; preds = %47
  %59 = call noundef ptr @_ZN3zmq5msg_t6refcntEv(ptr noundef nonnull align 8 dereferenceable(64) %5)
  %60 = load i32, ptr %4, align 4, !tbaa !14
  %61 = add nsw i32 %60, 1
  call void @_ZN3zmq16atomic_counter_t3setEj(ptr noundef nonnull align 8 dereferenceable(4) %59, i32 noundef %61) #14
  %62 = getelementptr inbounds nuw %"class.zmq::msg_t", ptr %5, i32 0, i32 0
  %63 = getelementptr inbounds nuw %struct.anon, ptr %62, i32 0, i32 3
  %64 = load i8, ptr %63, align 1, !tbaa !8
  %65 = zext i8 %64 to i32
  %66 = or i32 %65, 128
  %67 = trunc i32 %66 to i8
  store i8 %67, ptr %63, align 1, !tbaa !8
  br label %68

68:                                               ; preds = %58, %54
  br label %69

69:                                               ; preds = %38, %68, %45
  ret void
}