; Function Attrs: mustprogress uwtable
define void @_ZN3zmq5msg_t8add_refsEi(ptr noundef nonnull align 8 captures(none) dereferenceable(64) %0, i32 noundef %1) local_unnamed_addr #1 align 2 personality ptr @__gxx_personality_v0 {
  %3 = icmp slt i32 %1, 0
  br i1 %3, label %4, label %9, !prof !6

4:                                                ; preds = %2
  %5 = load ptr, ptr @stderr, align 8, !tbaa !7
  %6 = tail call i32 (ptr, ptr, ...) @fprintf(ptr noundef %5, ptr noundef nonnull @.str, ptr noundef nonnull @.str.9, ptr noundef nonnull @.str.2, i32 noundef 563) #20
  %7 = load ptr, ptr @stderr, align 8, !tbaa !7
  %8 = tail call i32 @fflush(ptr noundef %7)
  tail call void @_ZN3zmq9zmq_abortEPKc(ptr noundef nonnull @.str.9)
  br label %9

9:                                                ; preds = %4, %2
  %10 = load ptr, ptr %0, align 8, !tbaa !3
  %.not = icmp eq ptr %10, null
  br i1 %.not, label %16, label %11, !prof !23

11:                                               ; preds = %9
  %12 = load ptr, ptr @stderr, align 8, !tbaa !7
  %13 = tail call i32 (ptr, ptr, ...) @fprintf(ptr noundef %12, ptr noundef nonnull @.str, ptr noundef nonnull @.str.10, ptr noundef nonnull @.str.2, i32 noundef 566) #20
  %14 = load ptr, ptr @stderr, align 8, !tbaa !7
  %15 = tail call i32 @fflush(ptr noundef %14)
  tail call void @_ZN3zmq9zmq_abortEPKc(ptr noundef nonnull @.str.10)
  br label %16

16:                                               ; preds = %9, %11
  %.not4 = icmp eq i32 %1, 0
  br i1 %.not4, label %47, label %17

17:                                               ; preds = %16
  %18 = getelementptr inbounds nuw i8, ptr %0, i64 42
  %19 = load i8, ptr %18, align 2, !tbaa !3
  switch i8 %19, label %47 [
    i8 102, label %20
    i8 105, label %20
  ]

20:                                               ; preds = %17, %17
  %21 = getelementptr inbounds nuw i8, ptr %0, i64 43
  %22 = load i8, ptr %21, align 1, !tbaa !3
  %.not5 = icmp sgt i8 %22, -1
  br i1 %.not5, label %38, label %23

23:                                               ; preds = %20
  switch i8 %19, label %32 [
    i8 102, label %24
    i8 105, label %28
  ]

24:                                               ; preds = %23
  %25 = getelementptr inbounds nuw i8, ptr %0, i64 8
  %26 = load ptr, ptr %25, align 8, !tbaa !3
  %27 = getelementptr inbounds nuw i8, ptr %26, i64 32
  br label %_ZN3zmq5msg_t6refcntEv.exit

28:                                               ; preds = %23
  %29 = getelementptr inbounds nuw i8, ptr %0, i64 8
  %30 = load ptr, ptr %29, align 8, !tbaa !3
  %31 = getelementptr inbounds nuw i8, ptr %30, i64 32
  br label %_ZN3zmq5msg_t6refcntEv.exit

32:                                               ; preds = %23
  %33 = load ptr, ptr @stderr, align 8, !tbaa !7
  %34 = tail call i32 (ptr, ptr, ...) @fprintf(ptr noundef %33, ptr noundef nonnull @.str, ptr noundef nonnull @.str.7, ptr noundef nonnull @.str.2, i32 noundef 695) #20
  %35 = load ptr, ptr @stderr, align 8, !tbaa !7
  %36 = tail call i32 @fflush(ptr noundef %35)
  tail call void @_ZN3zmq9zmq_abortEPKc(ptr noundef nonnull @.str.7)
  br label %_ZN3zmq5msg_t6refcntEv.exit

_ZN3zmq5msg_t6refcntEv.exit:                      ; preds = %24, %28, %32
  %.0.i = phi ptr [ null, %32 ], [ %31, %28 ], [ %27, %24 ]
  %37 = atomicrmw add ptr %.0.i, i32 %1 acq_rel, align 4
  br label %47

38:                                               ; preds = %20
  switch i8 %19, label %39 [
    i8 102, label %_ZN3zmq5msg_t6refcntEv.exit7
    i8 105, label %_ZN3zmq5msg_t6refcntEv.exit7
  ]

39:                                               ; preds = %38
  %40 = load ptr, ptr @stderr, align 8, !tbaa !7
  %41 = tail call i32 (ptr, ptr, ...) @fprintf(ptr noundef %40, ptr noundef nonnull @.str, ptr noundef nonnull @.str.7, ptr noundef nonnull @.str.2, i32 noundef 695) #20
  %42 = load ptr, ptr @stderr, align 8, !tbaa !7
  %43 = tail call i32 @fflush(ptr noundef %42)
  tail call void @_ZN3zmq9zmq_abortEPKc(ptr noundef nonnull @.str.7)
  unreachable

_ZN3zmq5msg_t6refcntEv.exit7:                     ; preds = %38, %38
  %.pn.in = getelementptr inbounds nuw i8, ptr %0, i64 8
  %.pn = load ptr, ptr %.pn.in, align 8, !tbaa !3
  %.0.i6 = getelementptr inbounds nuw i8, ptr %.pn, i64 32
  %44 = add nsw i32 %1, 1
  store atomic i32 %44, ptr %.0.i6 seq_cst, align 4
  %45 = load i8, ptr %21, align 1, !tbaa !3
  %46 = or i8 %45, -128
  store i8 %46, ptr %21, align 1, !tbaa !3
  br label %47

47:                                               ; preds = %17, %_ZN3zmq5msg_t6refcntEv.exit, %_ZN3zmq5msg_t6refcntEv.exit7, %16
  ret void
}